target datalayout = "e-m:e-p270:32:32-p271:32:32-p272:64:64-i64:64-i128:128-f80:128-n8:16:32:64-S128"
target triple = "x86_64-unknown-linux-gnu"

@.str = private unnamed_addr constant [12 x i8] c"export name\00", align 1
@.str.1 = private unnamed_addr constant [6 x i8] c"abort\00", align 1
@.str.2 = private unnamed_addr constant [5 x i8] c"list\00", align 1
@.str.3 = private unnamed_addr constant [9 x i8] c"starttls\00", align 1
@.str.4 = private unnamed_addr constant [5 x i8] c"info\00", align 1
@.str.5 = private unnamed_addr constant [3 x i8] c"go\00", align 1
@.str.6 = private unnamed_addr constant [17 x i8] c"structured reply\00", align 1
@.str.7 = private unnamed_addr constant [18 x i8] c"list meta context\00", align 1
@.str.8 = private unnamed_addr constant [17 x i8] c"set meta context\00", align 1
@.str.9 = private unnamed_addr constant [17 x i8] c"extended headers\00", align 1
@.str.10 = private unnamed_addr constant [10 x i8] c"<unknown>\00", align 1

; Function Attrs: nounwind sspstrong uwtable
define dso_local ptr @nbd_opt_lookup(i32 noundef %opt) #0 {
entry:
  %retval = alloca ptr, align 8
  %opt.addr = alloca i32, align 4
  store i32 %opt, ptr %opt.addr, align 4
  %0 = load i32, ptr %opt.addr, align 4
  switch i32 %0, label %sw.default [
    i32 1, label %sw.bb
    i32 2, label %sw.bb1
    i32 3, label %sw.bb2
    i32 5, label %sw.bb3
    i32 6, label %sw.bb4
    i32 7, label %sw.bb5
    i32 8, label %sw.bb6
    i32 9, label %sw.bb7
    i32 10, label %sw.bb8
    i32 11, label %sw.bb9
  ]

sw.bb:                                            ; preds = %entry
  store ptr @.str, ptr %retval, align 8
  br label %return

sw.bb1:                                           ; preds = %entry
  store ptr @.str.1, ptr %retval, align 8
  br label %return

sw.bb2:                                           ; preds = %entry
  store ptr @.str.2, ptr %retval, align 8
  br label %return

sw.bb3:                                           ; preds = %entry
  store ptr @.str.3, ptr %retval, align 8
  br label %return

sw.bb4:                                           ; preds = %entry
  store ptr @.str.4, ptr %retval, align 8
  br label %return

sw.bb5:                                           ; preds = %entry
  store ptr @.str.5, ptr %retval, align 8
  br label %return

sw.bb6:                                           ; preds = %entry
  store ptr @.str.6, ptr %retval, align 8
  br label %return

sw.bb7:                                           ; preds = %entry
  store ptr @.str.7, ptr %retval, align 8
  br label %return

sw.bb8:                                           ; preds = %entry
  store ptr @.str.8, ptr %retval, align 8
  br label %return

sw.bb9:                                           ; preds = %entry
  store ptr @.str.9, ptr %retval, align 8
  br label %return

sw.default:                                       ; preds = %entry
  store ptr @.str.10, ptr %retval, align 8
  br label %return

return:                                           ; preds = %sw.default, %sw.bb9, %sw.bb8, %sw.bb7, %sw.bb6, %sw.bb5, %sw.bb4, %sw.bb3, %sw.bb2, %sw.bb1, %sw.bb
  %1 = load ptr, ptr %retval, align 8
  ret ptr %1
}